target datalayout = "e-m:e-p270:32:32-p271:32:32-p272:64:64-i64:64-i128:128-f80:128-n8:16:32:64-S128"
target triple = "x86_64-pc-linux-gnu"

%struct.iovec = type { ptr, i64 }
%struct.msghdr = type { ptr, i32, ptr, i64, ptr, i64, i32 }
%struct.cmsghdr = type { i64, i32, i32, [0 x i8] }

@.str.3 = private unnamed_addr constant [32 x i8] c"clamfi_eom: FD send failed: %s\0A\00", align 1

; Function Attrs: nounwind uwtable
define dso_local i32 @nc_sendmsg(i32 noundef %0, i32 noundef %1) #0 {
  %3 = alloca i32, align 4
  %4 = alloca i32, align 4
  %5 = alloca [1 x %struct.iovec], align 16
  %6 = alloca %struct.msghdr, align 8
  %7 = alloca ptr, align 8
  %8 = alloca i32, align 4
  %9 = alloca [24 x i8], align 16
  %10 = alloca [1 x i8], align 1
  %11 = alloca [256 x i8], align 16
  store i32 %0, ptr %3, align 4
  store i32 %1, ptr %4, align 4
  call void @llvm.memset.p0.i64(ptr align 1 %10, i8 0, i64 1, i1 false)
  %12 = getelementptr inbounds [1 x i8], ptr %10, i64 0, i64 0
  %13 = getelementptr inbounds [1 x %struct.iovec], ptr %5, i64 0, i64 0
  %14 = getelementptr inbounds %struct.iovec, ptr %13, i32 0, i32 0
  store ptr %12, ptr %14, align 16
  %15 = getelementptr inbounds [1 x %struct.iovec], ptr %5, i64 0, i64 0
  %16 = getelementptr inbounds %struct.iovec, ptr %15, i32 0, i32 1
  store i64 1, ptr %16, align 8
  call void @llvm.memset.p0.i64(ptr align 8 %6, i8 0, i64 56, i1 false)
  %17 = getelementptr inbounds [24 x i8], ptr %9, i64 0, i64 0
  %18 = getelementptr inbounds %struct.msghdr, ptr %6, i32 0, i32 4
  store ptr %17, ptr %18, align 8
  %19 = getelementptr inbounds [1 x %struct.iovec], ptr %5, i64 0, i64 0
  %20 = getelementptr inbounds %struct.msghdr, ptr %6, i32 0, i32 2
  store ptr %19, ptr %20, align 8
  %21 = getelementptr inbounds %struct.msghdr, ptr %6, i32 0, i32 3
  store i64 1, ptr %21, align 8
  %22 = getelementptr inbounds %struct.msghdr, ptr %6, i32 0, i32 5
  store i64 20, ptr %22, align 8
  %23 = getelementptr inbounds %struct.msghdr, ptr %6, i32 0, i32 5
  %24 = load i64, ptr %23, align 8
  %25 = icmp uge i64 %24, 16
  br i1 %25, label %26, label %29

26:                                               ; preds = %2
  %27 = getelementptr inbounds %struct.msghdr, ptr %6, i32 0, i32 4
  %28 = load ptr, ptr %27, align 8
  br label %30

29:                                               ; preds = %2
  br label %30

30:                                               ; preds = %29, %26
  %31 = phi ptr [ %28, %26 ], [ null, %29 ]
  store ptr %31, ptr %7, align 8
  %32 = load ptr, ptr %7, align 8
  %33 = getelementptr inbounds %struct.cmsghdr, ptr %32, i32 0, i32 0
  store i64 20, ptr %33, align 8
  %34 = load ptr, ptr %7, align 8
  %35 = getelementptr inbounds %struct.cmsghdr, ptr %34, i32 0, i32 1
  store i32 1, ptr %35, align 8
  %36 = load ptr, ptr %7, align 8
  %37 = getelementptr inbounds %struct.cmsghdr, ptr %36, i32 0, i32 2
  store i32 1, ptr %37, align 4
  %38 = load i32, ptr %4, align 4
  %39 = load ptr, ptr %7, align 8
  %40 = getelementptr inbounds %struct.cmsghdr, ptr %39, i32 0, i32 3
  %41 = getelementptr inbounds [0 x i8], ptr %40, i64 0, i64 0
  store i32 %38, ptr %41, align 8
  %42 = load i32, ptr %3, align 4
  %43 = call i64 @sendmsg(i32 noundef %42, ptr noundef %6, i32 noundef 0)
  %44 = trunc i64 %43 to i32
  store i32 %44, ptr %8, align 4
  %45 = icmp eq i32 %44, -1
  br i1 %45, label %46, label %54

46:                                               ; preds = %30
  %47 = call ptr @__errno_location() #9
  %48 = load i32, ptr %47, align 4
  %49 = getelementptr inbounds [256 x i8], ptr %11, i64 0, i64 0
  %50 = call ptr @cli_strerror(i32 noundef %48, ptr noundef %49, i64 noundef 256)
  %51 = call i32 (i32, ptr, ...) @logg(i32 noundef 5, ptr noundef @.str.3, ptr noundef %50)
  %52 = load i32, ptr %3, align 4
  %53 = call i32 @close(i32 noundef %52)
  br label %54

54:                                               ; preds = %46, %30
  %55 = load i32, ptr %8, align 4
  ret i32 %55
}