; Function Attrs: nounwind uwtable
define dso_local i32 @nc_sendmsg(i32 noundef %0, i32 noundef %1) local_unnamed_addr #0 {
  %3 = alloca [1 x %struct.iovec], align 16
  %4 = alloca %struct.msghdr, align 8
  %5 = alloca [24 x i8], align 16
  %6 = alloca [1 x i8], align 1
  %7 = alloca [256 x i8], align 16
  store i8 0, ptr %6, align 1
  store ptr %6, ptr %3, align 16
  %8 = getelementptr inbounds i8, ptr %3, i64 8
  store i64 1, ptr %8, align 8
  call void @llvm.memset.p0.i64(ptr noundef nonnull align 8 dereferenceable(56) %4, i8 0, i64 56, i1 false)
  %9 = getelementptr inbounds i8, ptr %4, i64 32
  store ptr %5, ptr %9, align 8
  %10 = getelementptr inbounds i8, ptr %4, i64 16
  store ptr %3, ptr %10, align 8
  %11 = getelementptr inbounds i8, ptr %4, i64 24
  store i64 1, ptr %11, align 8
  %12 = getelementptr inbounds i8, ptr %4, i64 40
  store i64 20, ptr %12, align 8
  store i64 20, ptr %5, align 16
  %13 = getelementptr inbounds i8, ptr %5, i64 8
  store i32 1, ptr %13, align 8
  %14 = getelementptr inbounds i8, ptr %5, i64 12
  store i32 1, ptr %14, align 4
  %15 = getelementptr inbounds i8, ptr %5, i64 16
  store i32 %1, ptr %15, align 16
  %16 = call i64 @sendmsg(i32 noundef %0, ptr noundef nonnull %4, i32 noundef 0) #13
  %17 = trunc i64 %16 to i32
  %18 = icmp eq i32 %17, -1
  br i1 %18, label %19, label %25

19:                                               ; preds = %2
  %20 = tail call ptr @__errno_location() #14
  %21 = load i32, ptr %20, align 4
  %22 = call ptr @cli_strerror(i32 noundef %21, ptr noundef nonnull %7, i64 noundef 256) #13
  %23 = call i32 (i32, ptr, ...) @logg(i32 noundef 5, ptr noundef nonnull @.str.3, ptr noundef %22) #13
  %24 = call i32 @close(i32 noundef %0) #13
  br label %25

25:                                               ; preds = %19, %2
  ret i32 %17
}